target datalayout = "e-m:e-p270:32:32-p271:32:32-p272:64:64-i64:64-i128:128-f80:128-n8:16:32:64-S128"
target triple = "x86_64-pc-linux-gnu"

@.str.1 = private unnamed_addr constant [10 x i8] c"varchar.c\00", align 1
@.str.7 = private unnamed_addr constant [22 x i8] c"invalid type modifier\00", align 1
@__func__.anychar_typmodin = private unnamed_addr constant [17 x i8] c"anychar_typmodin\00", align 1
@.str.8 = private unnamed_addr constant [38 x i8] c"length for type %s must be at least 1\00", align 1
@.str.9 = private unnamed_addr constant [36 x i8] c"length for type %s cannot exceed %d\00", align 1

; Function Attrs: nounwind uwtable
define internal i32 @anychar_typmodin(ptr noundef %0, ptr noundef %1) #0 {
  %3 = alloca ptr, align 8
  %4 = alloca ptr, align 8
  %5 = alloca i32, align 4
  %6 = alloca ptr, align 8
  %7 = alloca i32, align 4
  store ptr %0, ptr %3, align 8
  store ptr %1, ptr %4, align 8
  call void @llvm.lifetime.start.p0(i64 4, ptr %5) #8
  call void @llvm.lifetime.start.p0(i64 8, ptr %6) #8
  call void @llvm.lifetime.start.p0(i64 4, ptr %7) #8
  %8 = load ptr, ptr %3, align 8
  %9 = call ptr @ArrayGetIntegerTypmods(ptr noundef %8, ptr noundef %7)
  store ptr %9, ptr %6, align 8
  %10 = load i32, ptr %7, align 4
  %11 = icmp ne i32 %10, 1
  br i1 %11, label %12, label %24

12:                                               ; preds = %2
  br label %13

13:                                               ; preds = %12
  br i1 true, label %14, label %16

14:                                               ; preds = %13
  %15 = call zeroext i1 @errstart_cold(i32 noundef 21, ptr noundef null) #10
  br i1 %15, label %18, label %21

16:                                               ; preds = %13
  %17 = call zeroext i1 @errstart(i32 noundef 21, ptr noundef null)
  br i1 %17, label %18, label %21

18:                                               ; preds = %16, %14
  %19 = call i32 @errcode(i32 noundef 50856066)
  %20 = call i32 (ptr, ...) @errmsg(ptr noundef @.str.7)
  call void @errfinish(ptr noundef @.str.1, i32 noundef 48, ptr noundef @__func__.anychar_typmodin)
  br label %21

21:                                               ; preds = %18, %16, %14
  unreachable

22:                                               ; No predecessors!
  br label %23

23:                                               ; preds = %22
  br label %24

24:                                               ; preds = %23, %2
  %25 = load ptr, ptr %6, align 8
  %26 = load i32, ptr %25, align 4
  %27 = icmp slt i32 %26, 1
  br i1 %27, label %28, label %41

28:                                               ; preds = %24
  br label %29

29:                                               ; preds = %28
  br i1 true, label %30, label %32

30:                                               ; preds = %29
  %31 = call zeroext i1 @errstart_cold(i32 noundef 21, ptr noundef null) #10
  br i1 %31, label %34, label %38

32:                                               ; preds = %29
  %33 = call zeroext i1 @errstart(i32 noundef 21, ptr noundef null)
  br i1 %33, label %34, label %38

34:                                               ; preds = %32, %30
  %35 = call i32 @errcode(i32 noundef 50856066)
  %36 = load ptr, ptr %4, align 8
  %37 = call i32 (ptr, ...) @errmsg(ptr noundef @.str.8, ptr noundef %36)
  call void @errfinish(ptr noundef @.str.1, i32 noundef 53, ptr noundef @__func__.anychar_typmodin)
  br label %38

38:                                               ; preds = %34, %32, %30
  unreachable

39:                                               ; No predecessors!
  br label %40

40:                                               ; preds = %39
  br label %41

41:                                               ; preds = %40, %24
  %42 = load ptr, ptr %6, align 8
  %43 = load i32, ptr %42, align 4
  %44 = icmp sgt i32 %43, 10485760
  br i1 %44, label %45, label %58

45:                                               ; preds = %41
  br label %46

46:                                               ; preds = %45
  br i1 true, label %47, label %49

47:                                               ; preds = %46
  %48 = call zeroext i1 @errstart_cold(i32 noundef 21, ptr noundef null) #10
  br i1 %48, label %51, label %55

49:                                               ; preds = %46
  %50 = call zeroext i1 @errstart(i32 noundef 21, ptr noundef null)
  br i1 %50, label %51, label %55

51:                                               ; preds = %49, %47
  %52 = call i32 @errcode(i32 noundef 50856066)
  %53 = load ptr, ptr %4, align 8
  %54 = call i32 (ptr, ...) @errmsg(ptr noundef @.str.9, ptr noundef %53, i32 noundef 10485760)
  call void @errfinish(ptr noundef @.str.1, i32 noundef 58, ptr noundef @__func__.anychar_typmodin)
  br label %55

55:                                               ; preds = %51, %49, %47
  unreachable

56:                                               ; No predecessors!
  br label %57

57:                                               ; preds = %56
  br label %58

58:                                               ; preds = %57, %41
  %59 = load ptr, ptr %6, align 8
  %60 = load i32, ptr %59, align 4
  %61 = add i32 4, %60
  store i32 %61, ptr %5, align 4
  %62 = load i32, ptr %5, align 4
  call void @llvm.lifetime.end.p0(i64 4, ptr %7) #8
  call void @llvm.lifetime.end.p0(i64 8, ptr %6) #8
  call void @llvm.lifetime.end.p0(i64 4, ptr %5) #8
  ret i32 %62
}