; Function Attrs: nounwind uwtable
define internal fastcc range(i32 5, 10485765) i32 @anychar_typmodin(ptr noundef %0, ptr noundef %1) unnamed_addr #0 {
  %3 = alloca i32, align 4
  call void @llvm.lifetime.start.p0(i64 4, ptr nonnull %3) #13
  %4 = call ptr @ArrayGetIntegerTypmods(ptr noundef %0, ptr noundef nonnull %3) #13
  %5 = load i32, ptr %3, align 4
  %.not = icmp eq i32 %5, 1
  br i1 %.not, label %10, label %6

6:                                                ; preds = %2
  %7 = call zeroext i1 @errstart_cold(i32 noundef 21, ptr noundef null) #14
  call void @llvm.assume(i1 %7)
  %8 = call i32 @errcode(i32 noundef 50856066) #13
  %9 = call i32 (ptr, ...) @errmsg(ptr noundef nonnull @.str.7) #13
  call void @errfinish(ptr noundef nonnull @.str.1, i32 noundef 48, ptr noundef nonnull @__func__.anychar_typmodin) #13
  unreachable

10:                                               ; preds = %2
  %11 = load i32, ptr %4, align 4
  %12 = icmp slt i32 %11, 1
  br i1 %12, label %13, label %17

13:                                               ; preds = %10
  %14 = call zeroext i1 @errstart_cold(i32 noundef 21, ptr noundef null) #14
  call void @llvm.assume(i1 %14)
  %15 = call i32 @errcode(i32 noundef 50856066) #13
  %16 = call i32 (ptr, ...) @errmsg(ptr noundef nonnull @.str.8, ptr noundef %1) #13
  call void @errfinish(ptr noundef nonnull @.str.1, i32 noundef 53, ptr noundef nonnull @__func__.anychar_typmodin) #13
  unreachable

17:                                               ; preds = %10
  %18 = icmp samesign ugt i32 %11, 10485760
  br i1 %18, label %19, label %23

19:                                               ; preds = %17
  %20 = call zeroext i1 @errstart_cold(i32 noundef 21, ptr noundef null) #14
  call void @llvm.assume(i1 %20)
  %21 = call i32 @errcode(i32 noundef 50856066) #13
  %22 = call i32 (ptr, ...) @errmsg(ptr noundef nonnull @.str.9, ptr noundef %1, i32 noundef 10485760) #13
  call void @errfinish(ptr noundef nonnull @.str.1, i32 noundef 58, ptr noundef nonnull @__func__.anychar_typmodin) #13
  unreachable

23:                                               ; preds = %17
  %24 = add nuw nsw i32 %11, 4
  call void @llvm.lifetime.end.p0(i64 4, ptr nonnull %3) #13
  ret i32 %24
}